; Function Attrs: nounwind uwtable
define range(i32 -1, 1) i32 @arkEwtSetSV(ptr noundef %0, ptr noundef %1, ptr noundef readonly captures(none) %2) #0 {
  %4 = getelementptr inbounds nuw i8, ptr %2, i64 616
  %5 = load ptr, ptr %4, align 8, !tbaa !91
  tail call void @N_VAbs(ptr noundef %0, ptr noundef %5) #16
  %6 = getelementptr inbounds nuw i8, ptr %2, i64 32
  %7 = load double, ptr %6, align 8, !tbaa !85
  %8 = load ptr, ptr %4, align 8, !tbaa !91
  %9 = getelementptr inbounds nuw i8, ptr %2, i64 48
  %10 = load ptr, ptr %9, align 8, !tbaa !94
  tail call void @N_VLinearSum(double noundef %7, ptr noundef %8, double noundef 1.000000e+00, ptr noundef %10, ptr noundef %8) #16
  %11 = getelementptr inbounds nuw i8, ptr %2, i64 56
  %12 = load i32, ptr %11, align 8, !tbaa !84
  %.not = icmp eq i32 %12, 0
  br i1 %.not, label %17, label %13

13:                                               ; preds = %3
  %14 = load ptr, ptr %4, align 8, !tbaa !91
  %15 = tail call double @N_VMin(ptr noundef %14) #16
  %16 = fcmp ugt double %15, 0.000000e+00
  br i1 %16, label %17, label %19

17:                                               ; preds = %13, %3
  %18 = load ptr, ptr %4, align 8, !tbaa !91
  tail call void @N_VInv(ptr noundef %18, ptr noundef %1) #16
  br label %19

19:                                               ; preds = %13, %17
  %.0 = phi i32 [ 0, %17 ], [ -1, %13 ]
  ret i32 %.0
}